target datalayout = "e-m:e-p270:32:32-p271:32:32-p272:64:64-i64:64-i128:128-f80:128-n8:16:32:64-S128"
target triple = "x86_64-pc-linux-gnu"

%"class.std::shared_ptr.26" = type { %"class.std::__shared_ptr.27" }
%"class.std::__shared_ptr.27" = type { ptr, %"class.std::__shared_count" }
%"class.std::__shared_count" = type { ptr }
%"class.std::mutex" = type { %"class.std::__mutex_base" }
%"class.std::__mutex_base" = type { %union.pthread_mutex_t }
%union.pthread_mutex_t = type { %struct.__pthread_mutex_s }
%struct.__pthread_mutex_s = type { i32, i32, i32, i32, i32, i16, i16, %struct.__pthread_internal_list }
%struct.__pthread_internal_list = type { ptr, ptr }
%class.anon = type { i8 }
%"struct.arrow::(anonymous namespace)::SignalStopState" = type { %"class.std::enable_shared_from_this", %"class.std::mutex", %"class.std::vector", %"class.std::shared_ptr.2", %"class.std::unique_ptr", %"class.std::shared_ptr.7", %"class.std::shared_ptr.10", %"struct.std::atomic.13" }
%"class.std::enable_shared_from_this" = type { %"class.std::weak_ptr" }
%"class.std::weak_ptr" = type { %"class.std::__weak_ptr" }
%"class.std::__weak_ptr" = type { ptr, %"class.std::__weak_count" }
%"class.std::__weak_count" = type { ptr }
%"class.std::vector" = type { %"struct.std::_Vector_base" }
%"struct.std::_Vector_base" = type { %"struct.std::_Vector_base<arrow::(anonymous namespace)::SignalStopState::SavedSignalHandler, std::allocator<arrow::(anonymous namespace)::SignalStopState::SavedSignalHandler>>::_Vector_impl" }
%"struct.std::_Vector_base<arrow::(anonymous namespace)::SignalStopState::SavedSignalHandler, std::allocator<arrow::(anonymous namespace)::SignalStopState::SavedSignalHandler>>::_Vector_impl" = type { %"struct.std::_Vector_base<arrow::(anonymous namespace)::SignalStopState::SavedSignalHandler, std::allocator<arrow::(anonymous namespace)::SignalStopState::SavedSignalHandler>>::_Vector_impl_data" }
%"struct.std::_Vector_base<arrow::(anonymous namespace)::SignalStopState::SavedSignalHandler, std::allocator<arrow::(anonymous namespace)::SignalStopState::SavedSignalHandler>>::_Vector_impl_data" = type { ptr, ptr, ptr }
%"class.std::shared_ptr.2" = type { %"class.std::__shared_ptr.3" }
%"class.std::__shared_ptr.3" = type { ptr, %"class.std::__shared_count" }
%"class.std::unique_ptr" = type { %"struct.std::__uniq_ptr_data" }
%"struct.std::__uniq_ptr_data" = type { %"class.std::__uniq_ptr_impl" }
%"class.std::__uniq_ptr_impl" = type { %"class.std::tuple" }
%"class.std::tuple" = type { %"struct.std::_Tuple_impl" }
%"struct.std::_Tuple_impl" = type { %"struct.std::_Head_base.6" }
%"struct.std::_Head_base.6" = type { ptr }
%"class.std::shared_ptr.7" = type { %"class.std::__shared_ptr.8" }
%"class.std::__shared_ptr.8" = type { ptr, %"class.std::__shared_count" }
%"class.std::shared_ptr.10" = type { %"class.std::__shared_ptr.11" }
%"class.std::__shared_ptr.11" = type { ptr, %"class.std::__shared_count" }
%"struct.std::atomic.13" = type { %"struct.std::__atomic_base.14" }
%"struct.std::__atomic_base.14" = type { ptr }

@_ZZN5arrow12_GLOBAL__N_115SignalStopState8instanceEvE8instance = internal global %"class.std::shared_ptr.26" zeroinitializer, align 8
@_ZGVZN5arrow12_GLOBAL__N_115SignalStopState8instanceEvE8instance = internal global i64 0, align 8
@__dso_handle = external hidden global i8

; Function Attrs: mustprogress nounwind uwtable
define linkonce_odr noundef i32 @_ZStanSt12memory_orderSt23__memory_order_modifier(i32 noundef %0, i32 noundef %1) #2 comdat {
  %3 = alloca i32, align 4
  %4 = alloca i32, align 4
  store i32 %0, ptr %3, align 4, !tbaa !48
  store i32 %1, ptr %4, align 4, !tbaa !426
  %5 = load i32, ptr %3, align 4, !tbaa !48
  %6 = load i32, ptr %4, align 4, !tbaa !426
  %7 = and i32 %5, %6
  ret i32 %7
}

; Function Attrs: alwaysinline mustprogress nounwind uwtable
define linkonce_odr noundef ptr @_ZNKSt13__atomic_baseIPN5arrow8internal8SelfPipeEE4loadESt12memory_order(ptr noundef nonnull align 8 dereferenceable(8) %0, i32 noundef %1) #5 comdat align 2 {
  %3 = alloca ptr, align 8
  %4 = alloca i32, align 4
  %5 = alloca i32, align 4
  %6 = alloca ptr, align 8
  store ptr %0, ptr %3, align 8, !tbaa !424
  store i32 %1, ptr %4, align 4, !tbaa !48
  %7 = load ptr, ptr %3, align 8
  call void @llvm.lifetime.start.p0(i64 4, ptr %5) #12
  %8 = load i32, ptr %4, align 4, !tbaa !48
  %9 = call noundef i32 @_ZStanSt12memory_orderSt23__memory_order_modifier(i32 noundef %8, i32 noundef 65535)
  store i32 %9, ptr %5, align 4, !tbaa !48
  br label %10

10:                                               ; preds = %2
  br label %11

11:                                               ; preds = %10
  br label %12

12:                                               ; preds = %11
  br label %13

13:                                               ; preds = %12
  br label %14

14:                                               ; preds = %13
  br label %15

15:                                               ; preds = %14
  %16 = getelementptr inbounds nuw %"struct.std::__atomic_base.14", ptr %7, i32 0, i32 0
  %17 = load i32, ptr %4, align 4, !tbaa !48
  switch i32 %17, label %18 [
    i32 1, label %20
    i32 2, label %20
    i32 5, label %22
  ]

18:                                               ; preds = %15
  %19 = load atomic i64, ptr %16 monotonic, align 8
  store i64 %19, ptr %6, align 8
  br label %24

20:                                               ; preds = %15, %15
  %21 = load atomic i64, ptr %16 acquire, align 8
  store i64 %21, ptr %6, align 8
  br label %24

22:                                               ; preds = %15
  %23 = load atomic i64, ptr %16 seq_cst, align 8
  store i64 %23, ptr %6, align 8
  br label %24

24:                                               ; preds = %22, %20, %18
  %25 = load ptr, ptr %6, align 8, !tbaa !327
  call void @llvm.lifetime.end.p0(i64 4, ptr %5) #12
  ret ptr %25
}

; Function Attrs: mustprogress nounwind uwtable
define linkonce_odr noundef ptr @_ZNKSt6atomicIPN5arrow8internal8SelfPipeEE4loadESt12memory_order(ptr noundef nonnull align 8 dereferenceable(8) %0, i32 noundef %1) #2 comdat align 2 {
  %3 = alloca ptr, align 8
  %4 = alloca i32, align 4
  store ptr %0, ptr %3, align 8, !tbaa !325
  store i32 %1, ptr %4, align 4, !tbaa !48
  %5 = load ptr, ptr %3, align 8
  %6 = getelementptr inbounds nuw %"struct.std::atomic.13", ptr %5, i32 0, i32 0
  %7 = load i32, ptr %4, align 4, !tbaa !48
  %8 = call noundef ptr @_ZNKSt13__atomic_baseIPN5arrow8internal8SelfPipeEE4loadESt12memory_order(ptr noundef nonnull align 8 dereferenceable(8) %6, i32 noundef %7) #12
  ret ptr %8
}

; Function Attrs: mustprogress nounwind uwtable
define internal noundef ptr @_ZNKSt12__shared_ptrIN5arrow12_GLOBAL__N_115SignalStopStateELN9__gnu_cxx12_Lock_policyE2EE3getEv(ptr noundef nonnull align 8 dereferenceable(16) %0) #2 align 2 {
  %2 = alloca ptr, align 8
  store ptr %0, ptr %2, align 8, !tbaa !121
  %3 = load ptr, ptr %2, align 8
  %4 = getelementptr inbounds nuw %"class.std::__shared_ptr.27", ptr %3, i32 0, i32 0
  %5 = load ptr, ptr %4, align 8, !tbaa !123
  ret ptr %5
}

; Function Attrs: mustprogress uwtable
define internal void @_ZN5arrow12_GLOBAL__N_115SignalStopState14DoHandleSignalEi(ptr noundef nonnull align 8 dereferenceable(144) %0, i32 noundef %1) #0 align 2 {
  %3 = alloca ptr, align 8
  %4 = alloca i32, align 4
  %5 = alloca ptr, align 8
  store ptr %0, ptr %3, align 8, !tbaa !60
  store i32 %1, ptr %4, align 4, !tbaa !46
  %6 = load ptr, ptr %3, align 8
  call void @llvm.lifetime.start.p0(i64 8, ptr %5) #12
  %7 = getelementptr inbounds nuw %"struct.arrow::(anonymous namespace)::SignalStopState", ptr %6, i32 0, i32 7
  %8 = call noundef ptr @_ZNKSt6atomicIPN5arrow8internal8SelfPipeEE4loadESt12memory_order(ptr noundef nonnull align 8 dereferenceable(8) %7, i32 noundef 5) #12
  store ptr %8, ptr %5, align 8, !tbaa !327
  %9 = load ptr, ptr %5, align 8, !tbaa !327
  %10 = icmp ne ptr %9, null
  br i1 %10, label %11, label %18

11:                                               ; preds = %2
  %12 = load ptr, ptr %5, align 8, !tbaa !327
  %13 = load i32, ptr %4, align 4, !tbaa !46
  %14 = sext i32 %13 to i64
  %15 = load ptr, ptr %12, align 8, !tbaa !101
  %16 = getelementptr inbounds ptr, ptr %15, i64 3
  %17 = load ptr, ptr %16, align 8
  call void %17(ptr noundef nonnull align 8 dereferenceable(8) %12, i64 noundef %14)
  br label %18

18:                                               ; preds = %11, %2
  %19 = load i32, ptr %4, align 4, !tbaa !46
  call void @_ZN5arrow8internal22ReinstateSignalHandlerEiPFviE(i32 noundef %19, ptr noundef @_ZN5arrow12_GLOBAL__N_115SignalStopState12HandleSignalEi)
  call void @llvm.lifetime.end.p0(i64 8, ptr %5) #12
  ret void
}

; Function Attrs: mustprogress uwtable
define internal noundef ptr @_ZN5arrow12_GLOBAL__N_115SignalStopState8instanceEv() #0 align 2 personality ptr @__gxx_personality_v0 {
  %1 = alloca %class.anon, align 1
  %2 = alloca ptr, align 8
  %3 = alloca i32, align 4
  %4 = load atomic i8, ptr @_ZGVZN5arrow12_GLOBAL__N_115SignalStopState8instanceEvE8instance acquire, align 8
  %5 = icmp eq i8 %4, 0
  br i1 %5, label %6, label %12, !prof !62

6:                                                ; preds = %0
  %7 = call i32 @__cxa_guard_acquire(ptr @_ZGVZN5arrow12_GLOBAL__N_115SignalStopState8instanceEvE8instance) #12
  %8 = icmp ne i32 %7, 0
  br i1 %8, label %9, label %12

9:                                                ; preds = %6
  call void @llvm.lifetime.start.p0(i64 1, ptr %1) #12
  invoke void @_ZZN5arrow12_GLOBAL__N_115SignalStopState8instanceEvENKUlvE_clEv(ptr dead_on_unwind writable sret(%"class.std::shared_ptr.26") align 8 @_ZZN5arrow12_GLOBAL__N_115SignalStopState8instanceEvE8instance, ptr noundef nonnull align 1 dereferenceable(1) %1)
          to label %10 unwind label %14

10:                                               ; preds = %9
  call void @llvm.lifetime.end.p0(i64 1, ptr %1) #12
  %11 = call i32 @__cxa_atexit(ptr @_ZNSt12__shared_ptrIN5arrow12_GLOBAL__N_115SignalStopStateELN9__gnu_cxx12_Lock_policyE2EED2Ev, ptr @_ZZN5arrow12_GLOBAL__N_115SignalStopState8instanceEvE8instance, ptr @__dso_handle) #12
  call void @__cxa_guard_release(ptr @_ZGVZN5arrow12_GLOBAL__N_115SignalStopState8instanceEvE8instance) #12
  br label %12

12:                                               ; preds = %10, %6, %0
  %13 = call noundef ptr @_ZNKSt12__shared_ptrIN5arrow12_GLOBAL__N_115SignalStopStateELN9__gnu_cxx12_Lock_policyE2EE3getEv(ptr noundef nonnull align 8 dereferenceable(16) @_ZZN5arrow12_GLOBAL__N_115SignalStopState8instanceEvE8instance) #12
  ret ptr %13

14:                                               ; preds = %9
  %15 = landingpad { ptr, i32 }
          cleanup
  %16 = extractvalue { ptr, i32 } %15, 0
  store ptr %16, ptr %2, align 8
  %17 = extractvalue { ptr, i32 } %15, 1
  store i32 %17, ptr %3, align 4
  call void @llvm.lifetime.end.p0(i64 1, ptr %1) #12
  call void @__cxa_guard_abort(ptr @_ZGVZN5arrow12_GLOBAL__N_115SignalStopState8instanceEvE8instance) #12
  br label %18

18:                                               ; preds = %14
  %19 = load ptr, ptr %2, align 8
  %20 = load i32, ptr %3, align 4
  %21 = insertvalue { ptr, i32 } poison, ptr %19, 0
  %22 = insertvalue { ptr, i32 } %21, i32 %20, 1
  resume { ptr, i32 } %22
}

; Function Attrs: mustprogress uwtable
define internal void @_ZN5arrow12_GLOBAL__N_115SignalStopState12HandleSignalEi(i32 noundef %0) #0 align 2 {
  %2 = alloca i32, align 4
  %3 = alloca ptr, align 8
  store i32 %0, ptr %2, align 4, !tbaa !46
  call void @llvm.lifetime.start.p0(i64 8, ptr %3) #12
  %4 = call noundef ptr @_ZN5arrow12_GLOBAL__N_115SignalStopState8instanceEv()
  store ptr %4, ptr %3, align 8, !tbaa !60
  %5 = load ptr, ptr %3, align 8, !tbaa !60
  %6 = icmp ne ptr %5, null
  br i1 %6, label %7, label %10

7:                                                ; preds = %1
  %8 = load ptr, ptr %3, align 8, !tbaa !60
  %9 = load i32, ptr %2, align 4, !tbaa !46
  call void @_ZN5arrow12_GLOBAL__N_115SignalStopState14DoHandleSignalEi(ptr noundef nonnull align 8 dereferenceable(144) %8, i32 noundef %9)
  br label %10

10:                                               ; preds = %7, %1
  call void @llvm.lifetime.end.p0(i64 8, ptr %3) #12
  ret void
}