; Function Attrs: mustprogress uwtable
define internal void @_ZN5arrow12_GLOBAL__N_115SignalStopState12HandleSignalEi(i32 noundef %0) #0 align 2 personality ptr @__gxx_personality_v0 {
  %2 = load atomic i8, ptr @_ZGVZN5arrow12_GLOBAL__N_115SignalStopState8instanceEvE8instance acquire, align 8
  %3 = icmp eq i8 %2, 0
  br i1 %3, label %4, label %_ZN5arrow12_GLOBAL__N_115SignalStopState8instanceEv.exit, !prof !51

4:                                                ; preds = %1
  %5 = tail call i32 @__cxa_guard_acquire(ptr nonnull @_ZGVZN5arrow12_GLOBAL__N_115SignalStopState8instanceEvE8instance) #27
  %.not.i = icmp eq i32 %5, 0
  br i1 %.not.i, label %_ZN5arrow12_GLOBAL__N_115SignalStopState8instanceEv.exit, label %6

6:                                                ; preds = %4
  invoke fastcc void @_ZZN5arrow12_GLOBAL__N_115SignalStopState8instanceEvENKUlvE_clEv()
          to label %7 unwind label %9

7:                                                ; preds = %6
  %8 = tail call i32 @__cxa_atexit(ptr nonnull @_ZNSt12__shared_ptrIN5arrow12_GLOBAL__N_115SignalStopStateELN9__gnu_cxx12_Lock_policyE2EED2Ev, ptr nonnull @_ZZN5arrow12_GLOBAL__N_115SignalStopState8instanceEvE8instance, ptr nonnull @__dso_handle) #27
  tail call void @__cxa_guard_release(ptr nonnull @_ZGVZN5arrow12_GLOBAL__N_115SignalStopState8instanceEvE8instance) #27
  br label %_ZN5arrow12_GLOBAL__N_115SignalStopState8instanceEv.exit

9:                                                ; preds = %6
  %10 = landingpad { ptr, i32 }
          cleanup
  tail call void @__cxa_guard_abort(ptr nonnull @_ZGVZN5arrow12_GLOBAL__N_115SignalStopState8instanceEvE8instance) #27
  resume { ptr, i32 } %10

_ZN5arrow12_GLOBAL__N_115SignalStopState8instanceEv.exit: ; preds = %1, %4, %7
  %_ZZN5arrow12_GLOBAL__N_115SignalStopState8instanceEvE8instance.val.i = load ptr, ptr @_ZZN5arrow12_GLOBAL__N_115SignalStopState8instanceEvE8instance, align 8, !tbaa !52
  %.not = icmp eq ptr %_ZZN5arrow12_GLOBAL__N_115SignalStopState8instanceEvE8instance.val.i, null
  br i1 %.not, label %19, label %11

11:                                               ; preds = %_ZN5arrow12_GLOBAL__N_115SignalStopState8instanceEv.exit
  %12 = getelementptr inbounds nuw i8, ptr %_ZZN5arrow12_GLOBAL__N_115SignalStopState8instanceEvE8instance.val.i, i64 136
  %13 = load atomic i64, ptr %12 seq_cst, align 8
  %.not.i2 = icmp eq i64 %13, 0
  br i1 %.not.i2, label %_ZN5arrow12_GLOBAL__N_115SignalStopState14DoHandleSignalEi.exit, label %14

14:                                               ; preds = %11
  %.0.i.i.i = inttoptr i64 %13 to ptr
  %15 = sext i32 %0 to i64
  %16 = load ptr, ptr %.0.i.i.i, align 8, !tbaa !12
  %17 = getelementptr inbounds nuw i8, ptr %16, i64 24
  %18 = load ptr, ptr %17, align 8
  tail call void %18(ptr noundef nonnull align 8 dereferenceable(8) %.0.i.i.i, i64 noundef %15)
  br label %_ZN5arrow12_GLOBAL__N_115SignalStopState14DoHandleSignalEi.exit

_ZN5arrow12_GLOBAL__N_115SignalStopState14DoHandleSignalEi.exit: ; preds = %11, %14
  tail call void @_ZN5arrow8internal22ReinstateSignalHandlerEiPFviE(i32 noundef %0, ptr noundef nonnull @_ZN5arrow12_GLOBAL__N_115SignalStopState12HandleSignalEi)
  br label %19

19:                                               ; preds = %_ZN5arrow12_GLOBAL__N_115SignalStopState14DoHandleSignalEi.exit, %_ZN5arrow12_GLOBAL__N_115SignalStopState8instanceEv.exit
  ret void
}